target datalayout = "e-m:e-p270:32:32-p271:32:32-p272:64:64-i64:64-i128:128-f80:128-n8:16:32:64-S128"
target triple = "x86_64-pc-linux-gnu"

; Function Attrs: nounwind uwtable
define internal i32 @cli_hex2int(i8 noundef signext %0) #0 {
  %2 = alloca i8, align 1
  store i8 %0, ptr %2, align 1
  %3 = load i8, ptr %2, align 1
  %4 = zext i8 %3 to i64
  %5 = getelementptr inbounds [256 x i32], ptr @hex_chars, i64 0, i64 %4
  %6 = load i32, ptr %5, align 4
  ret i32 %6
}

; Function Attrs: nounwind uwtable
define i32 @cli_hex2str_to(ptr noundef %0, ptr noundef %1, i64 noundef %2) #0 {
  %4 = alloca i32, align 4
  %5 = alloca ptr, align 8
  %6 = alloca ptr, align 8
  %7 = alloca i64, align 8
  %8 = alloca i64, align 8
  %9 = alloca i32, align 4
  %10 = alloca i8, align 1
  store ptr %0, ptr %5, align 8
  store ptr %1, ptr %6, align 8
  store i64 %2, ptr %7, align 8
  store i64 0, ptr %8, align 8
  br label %11

11:                                               ; preds = %46, %3
  %12 = load i64, ptr %8, align 8
  %13 = load i64, ptr %7, align 8
  %14 = icmp ult i64 %12, %13
  br i1 %14, label %15, label %49

15:                                               ; preds = %11
  %16 = load ptr, ptr %5, align 8
  %17 = load i64, ptr %8, align 8
  %18 = getelementptr inbounds i8, ptr %16, i64 %17
  %19 = load i8, ptr %18, align 1
  %20 = call i32 @cli_hex2int(i8 noundef signext %19)
  store i32 %20, ptr %9, align 4
  %21 = icmp sge i32 %20, 0
  br i1 %21, label %22, label %41

22:                                               ; preds = %15
  %23 = load i32, ptr %9, align 4
  %24 = trunc i32 %23 to i8
  store i8 %24, ptr %10, align 1
  %25 = load ptr, ptr %5, align 8
  %26 = load i64, ptr %8, align 8
  %27 = add i64 %26, 1
  %28 = getelementptr inbounds i8, ptr %25, i64 %27
  %29 = load i8, ptr %28, align 1
  %30 = call i32 @cli_hex2int(i8 noundef signext %29)
  store i32 %30, ptr %9, align 4
  %31 = icmp sge i32 %30, 0
  br i1 %31, label %32, label %39

32:                                               ; preds = %22
  %33 = load i8, ptr %10, align 1
  %34 = sext i8 %33 to i32
  %35 = shl i32 %34, 4
  %36 = load i32, ptr %9, align 4
  %37 = add nsw i32 %35, %36
  %38 = trunc i32 %37 to i8
  store i8 %38, ptr %10, align 1
  br label %40

39:                                               ; preds = %22
  store i32 -1, ptr %4, align 4
  br label %50

40:                                               ; preds = %32
  br label %42

41:                                               ; preds = %15
  store i32 -1, ptr %4, align 4
  br label %50

42:                                               ; preds = %40
  %43 = load i8, ptr %10, align 1
  %44 = load ptr, ptr %6, align 8
  %45 = getelementptr inbounds i8, ptr %44, i32 1
  store ptr %45, ptr %6, align 8
  store i8 %43, ptr %44, align 1
  br label %46

46:                                               ; preds = %42
  %47 = load i64, ptr %8, align 8
  %48 = add i64 %47, 2
  store i64 %48, ptr %8, align 8
  br label %11

49:                                               ; preds = %11
  store i32 0, ptr %4, align 4
  br label %50

50:                                               ; preds = %49, %41, %39
  %51 = load i32, ptr %4, align 4
  ret i32 %51
}