; Function Attrs: nofree norecurse nosync nounwind memory(write, argmem: readwrite, inaccessiblemem: none) uwtable
define noundef i32 @cli_hex2str_to(ptr nocapture noundef readonly %0, ptr nocapture noundef writeonly %1, i64 noundef %2) local_unnamed_addr #0 {
  %.not = icmp eq i64 %2, 0
  br i1 %.not, label %._crit_edge, label %.lr.ph

.lr.ph:                                           ; preds = %3, %18
  %.017 = phi i64 [ %23, %18 ], [ 0, %3 ]
  %.01316 = phi ptr [ %22, %18 ], [ %1, %3 ]
  %4 = getelementptr inbounds i8, ptr %0, i64 %.017
  %5 = load i8, ptr %4, align 1
  %6 = zext i8 %5 to i64
  %7 = getelementptr inbounds [256 x i32], ptr @hex_chars, i64 0, i64 %6
  %8 = load i32, ptr %7, align 4
  %9 = icmp sgt i32 %8, -1
  br i1 %9, label %10, label %._crit_edge

10:                                               ; preds = %.lr.ph
  %11 = or disjoint i64 %.017, 1
  %12 = getelementptr inbounds i8, ptr %0, i64 %11
  %13 = load i8, ptr %12, align 1
  %14 = zext i8 %13 to i64
  %15 = getelementptr inbounds [256 x i32], ptr @hex_chars, i64 0, i64 %14
  %16 = load i32, ptr %15, align 4
  %17 = icmp sgt i32 %16, -1
  br i1 %17, label %18, label %._crit_edge

18:                                               ; preds = %10
  %19 = shl i32 %8, 4
  %20 = add i32 %16, %19
  %21 = trunc i32 %20 to i8
  %22 = getelementptr inbounds i8, ptr %.01316, i64 1
  store i8 %21, ptr %.01316, align 1
  %23 = add i64 %.017, 2
  %24 = icmp ult i64 %23, %2
  br i1 %24, label %.lr.ph, label %._crit_edge

._crit_edge:                                      ; preds = %10, %.lr.ph, %18, %3
  %.012 = phi i32 [ 0, %3 ], [ 0, %18 ], [ -1, %.lr.ph ], [ -1, %10 ]
  ret i32 %.012
}